; Function Attrs: mustprogress uwtable
define void @_ZN5faiss14FaissExceptionC2ERKNSt7__cxx1112basic_stringIcSt11char_traitsIcESaIcEEEPKcSA_i(ptr noundef nonnull align 8 dereferenceable(40) %0, ptr noundef nonnull align 8 dereferenceable(32) %1, ptr noundef %2, ptr noundef %3, i32 noundef %4) unnamed_addr #1 align 2 personality ptr @__gxx_personality_v0 {
  store ptr getelementptr inbounds ({ [5 x ptr] }, ptr @_ZTVN5faiss14FaissExceptionE, i64 0, i32 0, i64 2), ptr %0, align 8
  %6 = getelementptr inbounds i8, ptr %0, i64 8
  tail call void @_ZNSt7__cxx1112basic_stringIcSt11char_traitsIcESaIcEEC1Ev(ptr noundef nonnull align 8 dereferenceable(32) %6) #10
  %7 = tail call noundef ptr @_ZNKSt7__cxx1112basic_stringIcSt11char_traitsIcESaIcEE5c_strEv(ptr noundef nonnull align 8 dereferenceable(32) %1) #10
  %8 = tail call i32 (ptr, i64, ptr, ...) @snprintf(ptr noundef null, i64 noundef 0, ptr noundef nonnull @.str, ptr noundef %2, ptr noundef %3, i32 noundef %4, ptr noundef %7) #10
  %9 = add nsw i32 %8, 1
  %10 = sext i32 %9 to i64
  invoke void @_ZNSt7__cxx1112basic_stringIcSt11char_traitsIcESaIcEE6resizeEm(ptr noundef nonnull align 8 dereferenceable(32) %6, i64 noundef %10)
          to label %11 unwind label %17

11:                                               ; preds = %5
  %12 = invoke noundef nonnull align 1 dereferenceable(1) ptr @_ZNSt7__cxx1112basic_stringIcSt11char_traitsIcESaIcEEixEm(ptr noundef nonnull align 8 dereferenceable(32) %6, i64 noundef 0)
          to label %13 unwind label %17

13:                                               ; preds = %11
  %14 = tail call noundef i64 @_ZNKSt7__cxx1112basic_stringIcSt11char_traitsIcESaIcEE4sizeEv(ptr noundef nonnull align 8 dereferenceable(32) %6) #10
  %15 = tail call noundef ptr @_ZNKSt7__cxx1112basic_stringIcSt11char_traitsIcESaIcEE5c_strEv(ptr noundef nonnull align 8 dereferenceable(32) %1) #10
  %16 = tail call i32 (ptr, i64, ptr, ...) @snprintf(ptr noundef nonnull %12, i64 noundef %14, ptr noundef nonnull @.str, ptr noundef %2, ptr noundef %3, i32 noundef %4, ptr noundef %15) #10
  ret void

17:                                               ; preds = %11, %5
  %18 = landingpad { ptr, i32 }
          cleanup
  tail call void @_ZNSt7__cxx1112basic_stringIcSt11char_traitsIcESaIcEED1Ev(ptr noundef nonnull align 8 dereferenceable(32) %6) #10
  tail call void @_ZNSt9exceptionD2Ev(ptr noundef nonnull align 8 dereferenceable(8) %0) #10
  resume { ptr, i32 } %18
}